target datalayout = "e-m:e-p270:32:32-p271:32:32-p272:64:64-i64:64-i128:128-f80:128-n8:16:32:64-S128"
target triple = "x86_64-pc-linux-gnu"

%"struct.cv::Ptr" = type { %"class.std::shared_ptr" }
%"class.std::shared_ptr" = type { %"class.std::__shared_ptr" }
%"class.std::__shared_ptr" = type { ptr, %"class.std::__shared_count" }
%"class.std::__shared_count" = type { ptr }
%"class.cv::superres::SuperResolution" = type <{ %"class.cv::Algorithm", %"class.cv::superres::FrameSource", i8, [7 x i8], %"struct.cv::Ptr", i8, [7 x i8] }>
%"class.cv::Algorithm" = type { ptr }
%"class.cv::superres::FrameSource" = type { ptr }

; Function Attrs: mustprogress nounwind uwtable
define linkonce_odr hidden noundef ptr @_ZNKSt12__shared_ptrIN2cv8superres11FrameSourceELN9__gnu_cxx12_Lock_policyE2EE3getEv(ptr noundef nonnull align 8 dereferenceable(16) %0) #4 comdat align 2 {
  %2 = alloca ptr, align 8
  store ptr %0, ptr %2, align 8, !tbaa !25
  %3 = load ptr, ptr %2, align 8
  %4 = getelementptr inbounds nuw %"class.std::__shared_ptr", ptr %3, i32 0, i32 0
  %5 = load ptr, ptr %4, align 8, !tbaa !63
  ret ptr %5
}

; Function Attrs: mustprogress nounwind uwtable
define linkonce_odr hidden noundef ptr @_ZNK2cv3PtrINS_8superres11FrameSourceEEptEv(ptr noundef nonnull align 8 dereferenceable(16) %0) #4 comdat align 2 {
  %2 = alloca ptr, align 8
  store ptr %0, ptr %2, align 8, !tbaa !23
  %3 = load ptr, ptr %2, align 8
  %4 = call noundef ptr @_ZNKSt12__shared_ptrIN2cv8superres11FrameSourceELN9__gnu_cxx12_Lock_policyE2EE3getEv(ptr noundef nonnull align 8 dereferenceable(16) %3) #15
  ret ptr %4
}

; Function Attrs: mustprogress uwtable
define void @_ZN2cv8superres15SuperResolution5resetEv(ptr noundef nonnull align 8 dereferenceable(41) %0) unnamed_addr #0 align 2 {
  %2 = alloca ptr, align 8
  store ptr %0, ptr %2, align 8, !tbaa !3
  %3 = load ptr, ptr %2, align 8
  %4 = getelementptr inbounds nuw %"class.cv::superres::SuperResolution", ptr %3, i32 0, i32 4
  %5 = call noundef ptr @_ZNK2cv3PtrINS_8superres11FrameSourceEEptEv(ptr noundef nonnull align 8 dereferenceable(16) %4) #15
  %6 = load ptr, ptr %5, align 8, !tbaa !8
  %7 = getelementptr inbounds ptr, ptr %6, i64 3
  %8 = load ptr, ptr %7, align 8
  call void %8(ptr noundef nonnull align 8 dereferenceable(8) %5)
  %9 = getelementptr inbounds nuw %"class.cv::superres::SuperResolution", ptr %3, i32 0, i32 5
  store i8 1, ptr %9, align 8, !tbaa !10
  %10 = getelementptr inbounds nuw %"class.cv::superres::SuperResolution", ptr %3, i32 0, i32 2
  store i8 0, ptr %10, align 8, !tbaa !21
  ret void
}

; Function Attrs: uwtable
define void @_ZThn8_N2cv8superres15SuperResolution5resetEv(ptr noundef %0) unnamed_addr #7 align 2 {
  %2 = alloca ptr, align 8
  store ptr %0, ptr %2, align 8, !tbaa !3
  %3 = load ptr, ptr %2, align 8
  %4 = getelementptr inbounds i8, ptr %3, i64 -8
  tail call void @_ZN2cv8superres15SuperResolution5resetEv(ptr noundef nonnull align 8 dereferenceable(41) %4)
  ret void
}